; Function Attrs: nounwind uwtable
define ptr @l_Lean_Elab_WF_GuessLex_withRecApps_loop___rarg___lambda__1___boxed(ptr noundef %0, ptr noundef %1, ptr noundef %2, ptr noundef %3, ptr noundef %4, ptr noundef %5, ptr noundef %6, ptr noundef %7, ptr noundef %8, ptr noundef %9, ptr noundef %10, ptr noundef %11, ptr noundef %12) #1 {
  %14 = tail call ptr @lean_expr_instantiate1(ptr noundef %0, ptr noundef %5) #8
  %15 = tail call ptr @l_Lean_Elab_WF_GuessLex_withRecApps_loop___rarg(ptr noundef %1, ptr noundef %2, ptr noundef %3, ptr noundef %4, ptr noundef %14, ptr noundef %6, ptr noundef %7, ptr noundef %8, ptr noundef %9, ptr noundef %10, ptr noundef %11, ptr noundef %12)
  %16 = ptrtoint ptr %5 to i64
  %17 = and i64 %16, 1
  %.not = icmp eq i64 %17, 0
  br i1 %.not, label %18, label %lean_dec.exit16

18:                                               ; preds = %13
  %19 = load i32, ptr %5, align 4, !tbaa !8
  %20 = icmp sgt i32 %19, 1
  br i1 %20, label %21, label %23, !prof !11

21:                                               ; preds = %18
  %22 = add nsw i32 %19, -1
  store i32 %22, ptr %5, align 4, !tbaa !8
  br label %lean_dec.exit16

23:                                               ; preds = %18
  %.not.i = icmp eq i32 %19, 0
  br i1 %.not.i, label %lean_dec.exit16, label %24

24:                                               ; preds = %23
  tail call void @lean_dec_ref_cold(ptr noundef nonnull %5) #8
  br label %lean_dec.exit16

lean_dec.exit16:                                  ; preds = %24, %23, %21, %13
  %25 = ptrtoint ptr %0 to i64
  %26 = and i64 %25, 1
  %.not19 = icmp eq i64 %26, 0
  br i1 %.not19, label %27, label %lean_dec.exit

27:                                               ; preds = %lean_dec.exit16
  %28 = load i32, ptr %0, align 4, !tbaa !8
  %29 = icmp sgt i32 %28, 1
  br i1 %29, label %30, label %32, !prof !11

30:                                               ; preds = %27
  %31 = add nsw i32 %28, -1
  store i32 %31, ptr %0, align 4, !tbaa !8
  br label %lean_dec.exit

32:                                               ; preds = %27
  %.not.i17 = icmp eq i32 %28, 0
  br i1 %.not.i17, label %lean_dec.exit, label %33

33:                                               ; preds = %32
  tail call void @lean_dec_ref_cold(ptr noundef nonnull %0) #8
  br label %lean_dec.exit

lean_dec.exit:                                    ; preds = %33, %32, %30, %lean_dec.exit16
  ret ptr %15
}